
avr_at2313_vusb_fabscan.elf:     file format elf32-avr

Sections:
Idx Name          Size      VMA       LMA       File off  Algn
  0 .text         00000768  00000000  00000000  00000094  2**1
                  CONTENTS, ALLOC, LOAD, READONLY, CODE
  1 .data         00000024  00800060  00000768  000007fc  2**0
                  CONTENTS, ALLOC, LOAD, DATA
  2 .bss          00000032  00800084  00800084  00000820  2**0
                  ALLOC
  3 .stab         000006b4  00000000  00000000  00000820  2**2
                  CONTENTS, READONLY, DEBUGGING
  4 .stabstr      00000054  00000000  00000000  00000ed4  2**0
                  CONTENTS, READONLY, DEBUGGING

Disassembly of section .text:

00000000 <__vectors>:
   0:	48 c0       	rjmp	.+144    	; 0x92 <__ctors_end>
   2:	7a c0       	rjmp	.+244    	; 0xf8 <__vector_1>
   4:	5f c0       	rjmp	.+190    	; 0xc4 <__bad_interrupt>
   6:	5e c0       	rjmp	.+188    	; 0xc4 <__bad_interrupt>
   8:	5d c0       	rjmp	.+186    	; 0xc4 <__bad_interrupt>
   a:	5c c0       	rjmp	.+184    	; 0xc4 <__bad_interrupt>
   c:	5b c0       	rjmp	.+182    	; 0xc4 <__bad_interrupt>
   e:	5a c0       	rjmp	.+180    	; 0xc4 <__bad_interrupt>
  10:	59 c0       	rjmp	.+178    	; 0xc4 <__bad_interrupt>
  12:	58 c0       	rjmp	.+176    	; 0xc4 <__bad_interrupt>
  14:	57 c0       	rjmp	.+174    	; 0xc4 <__bad_interrupt>
  16:	56 c0       	rjmp	.+172    	; 0xc4 <__bad_interrupt>
  18:	55 c0       	rjmp	.+170    	; 0xc4 <__bad_interrupt>
  1a:	54 c0       	rjmp	.+168    	; 0xc4 <__bad_interrupt>
  1c:	53 c0       	rjmp	.+166    	; 0xc4 <__bad_interrupt>
  1e:	52 c0       	rjmp	.+164    	; 0xc4 <__bad_interrupt>
  20:	51 c0       	rjmp	.+162    	; 0xc4 <__bad_interrupt>
  22:	50 c0       	rjmp	.+160    	; 0xc4 <__bad_interrupt>
  24:	4f c0       	rjmp	.+158    	; 0xc4 <__bad_interrupt>
  26:	0e c3       	rjmp	.+1564   	; 0x644 <fabscan_typAction+0x12>
  28:	0f c3       	rjmp	.+1566   	; 0x648 <fabscan_typAction+0x16>
  2a:	13 c3       	rjmp	.+1574   	; 0x652 <fabscan_typAction+0x20>
  2c:	15 c3       	rjmp	.+1578   	; 0x658 <fabscan_typAction+0x26>
  2e:	16 c3       	rjmp	.+1580   	; 0x65c <fabscan_typAction+0x2a>
  30:	17 c3       	rjmp	.+1582   	; 0x660 <fabscan_typAction+0x2e>
  32:	18 c3       	rjmp	.+1584   	; 0x664 <fabscan_typAction+0x32>
  34:	19 c3       	rjmp	.+1586   	; 0x668 <fabscan_typAction+0x36>
  36:	1b c3       	rjmp	.+1590   	; 0x66e <fabscan_typAction+0x3c>
  38:	09 c3       	rjmp	.+1554   	; 0x64c <fabscan_typAction+0x1a>
  3a:	1b c3       	rjmp	.+1590   	; 0x672 <fabscan_typAction+0x40>
  3c:	2a c3       	rjmp	.+1620   	; 0x692 <fabscan_typAction+0x60>
  3e:	21 c3       	rjmp	.+1602   	; 0x682 <fabscan_typAction+0x50>

00000040 <usbDescriptorString0>:
  40:	04 03 09 04                                         ....

00000044 <usbDescriptorStringVendor>:
  44:	20 03 50 00 68 00 6c 00 74 00 5f 00 46 00 61 00      .P.h.l.t._.F.a.
  54:	62 00 73 00 63 00 61 00 6e 00 42 00 72 00 64 00     b.s.c.a.n.B.r.d.

00000064 <usbDescriptorStringDevice>:
  64:	0a 03 46 00 61 00 62 00 53 00                       ..F.a.b.S.

0000006e <usbDescriptorDevice>:
  6e:	12 01 10 01 ff 00 00 08 c0 16 dc 05 00 01 01 02     ................
  7e:	00 01                                               ..

00000080 <usbDescriptorConfiguration>:
  80:	09 02 12 00 01 01 00 80 3c 09 04 00 00 00 00 00     ........<.......
	...

00000092 <__ctors_end>:
  92:	11 24       	eor	r1, r1
  94:	1f be       	out	0x3f, r1	; 63
  96:	cf ed       	ldi	r28, 0xDF	; 223
  98:	cd bf       	out	0x3d, r28	; 61

0000009a <__do_copy_data>:
  9a:	10 e0       	ldi	r17, 0x00	; 0
  9c:	a0 e6       	ldi	r26, 0x60	; 96
  9e:	b0 e0       	ldi	r27, 0x00	; 0
  a0:	e8 e6       	ldi	r30, 0x68	; 104
  a2:	f7 e0       	ldi	r31, 0x07	; 7
  a4:	02 c0       	rjmp	.+4      	; 0xaa <__do_copy_data+0x10>
  a6:	05 90       	lpm	r0, Z+
  a8:	0d 92       	st	X+, r0
  aa:	a4 38       	cpi	r26, 0x84	; 132
  ac:	b1 07       	cpc	r27, r17
  ae:	d9 f7       	brne	.-10     	; 0xa6 <__do_copy_data+0xc>

000000b0 <__do_clear_bss>:
  b0:	10 e0       	ldi	r17, 0x00	; 0
  b2:	a4 e8       	ldi	r26, 0x84	; 132
  b4:	b0 e0       	ldi	r27, 0x00	; 0
  b6:	01 c0       	rjmp	.+2      	; 0xba <.do_clear_bss_start>

000000b8 <.do_clear_bss_loop>:
  b8:	1d 92       	st	X+, r1

000000ba <.do_clear_bss_start>:
  ba:	a6 3b       	cpi	r26, 0xB6	; 182
  bc:	b1 07       	cpc	r27, r17
  be:	e1 f7       	brne	.-8      	; 0xb8 <.do_clear_bss_loop>
  c0:	34 d3       	rcall	.+1640   	; 0x72a <main>
  c2:	50 c3       	rjmp	.+1696   	; 0x764 <_exit>

000000c4 <__bad_interrupt>:
  c4:	9d cf       	rjmp	.-198    	; 0x0 <__vectors>

000000c6 <usbCrc16>:
  c6:	a8 2f       	mov	r26, r24
  c8:	b9 2f       	mov	r27, r25
  ca:	80 e0       	ldi	r24, 0x00	; 0
  cc:	90 e0       	ldi	r25, 0x00	; 0
  ce:	41 e0       	ldi	r20, 0x01	; 1
  d0:	50 ea       	ldi	r21, 0xA0	; 160
  d2:	60 95       	com	r22
  d4:	30 e0       	ldi	r19, 0x00	; 0
  d6:	09 c0       	rjmp	.+18     	; 0xea <usbCrcLoopEntry>

000000d8 <usbCrcByteLoop>:
  d8:	2d 91       	ld	r18, X+
  da:	82 27       	eor	r24, r18

000000dc <usbCrcBitLoop>:
  dc:	97 95       	ror	r25
  de:	87 95       	ror	r24
  e0:	10 f0       	brcs	.+4      	; 0xe6 <usbCrcNoXor>
  e2:	84 27       	eor	r24, r20
  e4:	95 27       	eor	r25, r21

000000e6 <usbCrcNoXor>:
  e6:	30 5e       	subi	r19, 0xE0	; 224
  e8:	c8 f3       	brcs	.-14     	; 0xdc <usbCrcBitLoop>

000000ea <usbCrcLoopEntry>:
  ea:	6f 5f       	subi	r22, 0xFF	; 255
  ec:	a8 f3       	brcs	.-22     	; 0xd8 <usbCrcByteLoop>

000000ee <usbCrcReady>:
  ee:	08 95       	ret

000000f0 <usbCrc16Append>:
  f0:	ea df       	rcall	.-44     	; 0xc6 <usbCrc16>
  f2:	8d 93       	st	X+, r24
  f4:	9d 93       	st	X+, r25
  f6:	08 95       	ret

000000f8 <__vector_1>:
  f8:	cf 93       	push	r28
  fa:	cf b7       	in	r28, 0x3f	; 63
  fc:	cf 93       	push	r28

000000fe <waitForJ>:
  fe:	c3 95       	inc	r28
 100:	83 9b       	sbis	0x10, 3	; 16
 102:	e9 f7       	brne	.-6      	; 0xfe <waitForJ>

00000104 <waitForK>:
 104:	83 9b       	sbis	0x10, 3	; 16
 106:	09 c0       	rjmp	.+18     	; 0x11a <foundK>
 108:	83 9b       	sbis	0x10, 3	; 16
 10a:	07 c0       	rjmp	.+14     	; 0x11a <foundK>
 10c:	83 9b       	sbis	0x10, 3	; 16
 10e:	05 c0       	rjmp	.+10     	; 0x11a <foundK>
 110:	83 9b       	sbis	0x10, 3	; 16
 112:	03 c0       	rjmp	.+6      	; 0x11a <foundK>
 114:	83 9b       	sbis	0x10, 3	; 16
 116:	01 c0       	rjmp	.+2      	; 0x11a <foundK>
 118:	a1 c0       	rjmp	.+322    	; 0x25c <sofError>

0000011a <foundK>:
 11a:	df 93       	push	r29
 11c:	c0 91 96 00 	lds	r28, 0x0096
 120:	dd 27       	eor	r29, r29
 122:	c3 56       	subi	r28, 0x63	; 99
 124:	df 4f       	sbci	r29, 0xFF	; 255
 126:	83 9b       	sbis	0x10, 3	; 16
 128:	02 c0       	rjmp	.+4      	; 0x12e <haveTwoBitsK>
 12a:	df 91       	pop	r29
 12c:	eb cf       	rjmp	.-42     	; 0x104 <waitForK>

0000012e <haveTwoBitsK>:
 12e:	2f 93       	push	r18
 130:	0f 93       	push	r16
 132:	1f 93       	push	r17
 134:	00 b3       	in	r16, 0x10	; 16
 136:	2f ef       	ldi	r18, 0xFF	; 255
 138:	03 fb       	bst	r16, 3
 13a:	20 f9       	bld	r18, 0
 13c:	4f 93       	push	r20
 13e:	3f 93       	push	r19
 140:	10 b3       	in	r17, 0x10	; 16
 142:	4f ef       	ldi	r20, 0xFF	; 255
 144:	01 27       	eor	r16, r17
 146:	03 fb       	bst	r16, 3
 148:	21 f9       	bld	r18, 1
 14a:	3b e0       	ldi	r19, 0x0B	; 11
 14c:	31 c0       	rjmp	.+98     	; 0x1b0 <rxbit2>

0000014e <unstuff0>:
 14e:	4e 7f       	andi	r20, 0xFE	; 254
 150:	01 2f       	mov	r16, r17
 152:	10 b3       	in	r17, 0x10	; 16
 154:	21 60       	ori	r18, 0x01	; 1
 156:	28 c0       	rjmp	.+80     	; 0x1a8 <didUnstuff0>

00000158 <unstuff1>:
 158:	10 2f       	mov	r17, r16
 15a:	4d 7f       	andi	r20, 0xFD	; 253
 15c:	22 60       	ori	r18, 0x02	; 2
 15e:	00 00       	nop
 160:	00 b3       	in	r16, 0x10	; 16
 162:	29 c0       	rjmp	.+82     	; 0x1b6 <didUnstuff1>

00000164 <unstuff2>:
 164:	4b 7f       	andi	r20, 0xFB	; 251
 166:	24 60       	ori	r18, 0x04	; 4
 168:	01 2f       	mov	r16, r17
 16a:	00 00       	nop
 16c:	10 b3       	in	r17, 0x10	; 16
 16e:	2b c0       	rjmp	.+86     	; 0x1c6 <didUnstuff2>

00000170 <unstuff3>:
 170:	10 b3       	in	r17, 0x10	; 16
 172:	47 7f       	andi	r20, 0xF7	; 247
 174:	28 60       	ori	r18, 0x08	; 8
 176:	2a c0       	rjmp	.+84     	; 0x1cc <didUnstuff3>

00000178 <unstuff4>:
 178:	4f 7e       	andi	r20, 0xEF	; 239
 17a:	00 b3       	in	r16, 0x10	; 16
 17c:	20 61       	ori	r18, 0x10	; 16
 17e:	2c c0       	rjmp	.+88     	; 0x1d8 <didUnstuff4>

00000180 <unstuff5>:
 180:	4f 7d       	andi	r20, 0xDF	; 223
 182:	10 b3       	in	r17, 0x10	; 16
 184:	20 62       	ori	r18, 0x20	; 32
 186:	2f c0       	rjmp	.+94     	; 0x1e6 <didUnstuff5>

00000188 <unstuff6>:
 188:	4f 7b       	andi	r20, 0xBF	; 191
 18a:	00 b3       	in	r16, 0x10	; 16
 18c:	20 64       	ori	r18, 0x40	; 64
 18e:	32 c0       	rjmp	.+100    	; 0x1f4 <didUnstuff6>

00000190 <rxLoop>:
 190:	42 27       	eor	r20, r18
 192:	00 b3       	in	r16, 0x10	; 16
 194:	49 93       	st	Y+, r20
 196:	4f ef       	ldi	r20, 0xFF	; 255
 198:	00 00       	nop
 19a:	10 27       	eor	r17, r16
 19c:	13 fb       	bst	r17, 3
 19e:	20 f9       	bld	r18, 0
 1a0:	10 b3       	in	r17, 0x10	; 16
 1a2:	1c 70       	andi	r17, 0x0C	; 12
 1a4:	c9 f1       	breq	.+114    	; 0x218 <se0>
 1a6:	29 7f       	andi	r18, 0xF9	; 249

000001a8 <didUnstuff0>:
 1a8:	91 f2       	breq	.-92     	; 0x14e <unstuff0>
 1aa:	01 27       	eor	r16, r17
 1ac:	03 fb       	bst	r16, 3
 1ae:	21 f9       	bld	r18, 1

000001b0 <rxbit2>:
 1b0:	00 b3       	in	r16, 0x10	; 16
 1b2:	23 7f       	andi	r18, 0xF3	; 243
 1b4:	89 f2       	breq	.-94     	; 0x158 <unstuff1>

000001b6 <didUnstuff1>:
 1b6:	31 50       	subi	r19, 0x01	; 1
 1b8:	58 f1       	brcs	.+86     	; 0x210 <overflow>
 1ba:	10 27       	eor	r17, r16
 1bc:	13 fb       	bst	r17, 3
 1be:	22 f9       	bld	r18, 2
 1c0:	10 b3       	in	r17, 0x10	; 16
 1c2:	27 7e       	andi	r18, 0xE7	; 231
 1c4:	79 f2       	breq	.-98     	; 0x164 <unstuff2>

000001c6 <didUnstuff2>:
 1c6:	01 27       	eor	r16, r17
 1c8:	03 fb       	bst	r16, 3
 1ca:	23 f9       	bld	r18, 3

000001cc <didUnstuff3>:
 1cc:	2f 7c       	andi	r18, 0xCF	; 207
 1ce:	81 f2       	breq	.-96     	; 0x170 <unstuff3>
 1d0:	00 b3       	in	r16, 0x10	; 16
 1d2:	10 27       	eor	r17, r16
 1d4:	13 fb       	bst	r17, 3
 1d6:	24 f9       	bld	r18, 4

000001d8 <didUnstuff4>:
 1d8:	2f 79       	andi	r18, 0x9F	; 159
 1da:	71 f2       	breq	.-100    	; 0x178 <unstuff4>
 1dc:	00 c0       	rjmp	.+0      	; 0x1de <didUnstuff4+0x6>
 1de:	10 b3       	in	r17, 0x10	; 16
 1e0:	01 27       	eor	r16, r17
 1e2:	03 fb       	bst	r16, 3
 1e4:	25 f9       	bld	r18, 5

000001e6 <didUnstuff5>:
 1e6:	2f 73       	andi	r18, 0x3F	; 63
 1e8:	59 f2       	breq	.-106    	; 0x180 <unstuff5>
 1ea:	00 c0       	rjmp	.+0      	; 0x1ec <didUnstuff5+0x6>
 1ec:	00 b3       	in	r16, 0x10	; 16
 1ee:	10 27       	eor	r17, r16
 1f0:	13 fb       	bst	r17, 3
 1f2:	26 f9       	bld	r18, 6

000001f4 <didUnstuff6>:
 1f4:	22 30       	cpi	r18, 0x02	; 2
 1f6:	40 f2       	brcs	.-112    	; 0x188 <unstuff6>
 1f8:	00 c0       	rjmp	.+0      	; 0x1fa <didUnstuff6+0x6>
 1fa:	10 b3       	in	r17, 0x10	; 16
 1fc:	01 27       	eor	r16, r17
 1fe:	03 fb       	bst	r16, 3
 200:	27 f9       	bld	r18, 7

00000202 <didUnstuff7>:
 202:	24 30       	cpi	r18, 0x04	; 4
 204:	28 f6       	brcc	.-118    	; 0x190 <rxLoop>

00000206 <unstuff7>:
 206:	4f 77       	andi	r20, 0x7F	; 127
 208:	20 68       	ori	r18, 0x80	; 128
 20a:	10 b3       	in	r17, 0x10	; 16
 20c:	00 00       	nop
 20e:	f9 cf       	rjmp	.-14     	; 0x202 <didUnstuff7>

00000210 <overflow>:
 210:	10 e4       	ldi	r17, 0x40	; 64
 212:	1a bf       	out	0x3a, r17	; 58

00000214 <ignorePacket>:
 214:	00 27       	eor	r16, r16
 216:	17 c0       	rjmp	.+46     	; 0x246 <handleSetupOrOut>

00000218 <se0>:
 218:	3b 50       	subi	r19, 0x0B	; 11
 21a:	31 95       	neg	r19
 21c:	c3 1b       	sub	r28, r19
 21e:	d0 40       	sbci	r29, 0x00	; 0
 220:	10 e4       	ldi	r17, 0x40	; 64
 222:	1a bf       	out	0x3a, r17	; 58
 224:	08 81       	ld	r16, Y
 226:	03 3c       	cpi	r16, 0xC3	; 195
 228:	e9 f0       	breq	.+58     	; 0x264 <handleData>
 22a:	0b 34       	cpi	r16, 0x4B	; 75
 22c:	d9 f0       	breq	.+54     	; 0x264 <handleData>
 22e:	20 91 94 00 	lds	r18, 0x0094
 232:	19 81       	ldd	r17, Y+1	; 0x01
 234:	11 0f       	add	r17, r17
 236:	12 13       	cpse	r17, r18
 238:	ed cf       	rjmp	.-38     	; 0x214 <ignorePacket>
 23a:	09 36       	cpi	r16, 0x69	; 105
 23c:	41 f1       	breq	.+80     	; 0x28e <handleIn>
 23e:	0d 32       	cpi	r16, 0x2D	; 45
 240:	11 f0       	breq	.+4      	; 0x246 <handleSetupOrOut>
 242:	01 3e       	cpi	r16, 0xE1	; 225
 244:	39 f7       	brne	.-50     	; 0x214 <ignorePacket>

00000246 <handleSetupOrOut>:
 246:	00 93 9b 00 	sts	0x009B, r16

0000024a <doReturn>:
 24a:	3f 91       	pop	r19
 24c:	4f 91       	pop	r20
 24e:	1f 91       	pop	r17
 250:	0f 91       	pop	r16
 252:	2f 91       	pop	r18
 254:	df 91       	pop	r29
 256:	ca b7       	in	r28, 0x3a	; 58
 258:	c6 fd       	sbrc	r28, 6
 25a:	51 cf       	rjmp	.-350    	; 0xfe <waitForJ>

0000025c <sofError>:
 25c:	cf 91       	pop	r28
 25e:	cf bf       	out	0x3f, r28	; 63
 260:	cf 91       	pop	r28
 262:	18 95       	reti

00000264 <handleData>:
 264:	20 91 9b 00 	lds	r18, 0x009B
 268:	22 23       	and	r18, r18
 26a:	79 f3       	breq	.-34     	; 0x24a <doReturn>
 26c:	10 91 99 00 	lds	r17, 0x0099
 270:	11 23       	and	r17, r17
 272:	11 f5       	brne	.+68     	; 0x2b8 <sendNakAndReti>
 274:	34 30       	cpi	r19, 0x04	; 4
 276:	12 f1       	brmi	.+68     	; 0x2bc <sendAckAndReti>
 278:	30 93 99 00 	sts	0x0099, r19
 27c:	20 93 95 00 	sts	0x0095, r18
 280:	10 91 96 00 	lds	r17, 0x0096
 284:	3b e0       	ldi	r19, 0x0B	; 11
 286:	31 1b       	sub	r19, r17
 288:	30 93 96 00 	sts	0x0096, r19
 28c:	17 c0       	rjmp	.+46     	; 0x2bc <sendAckAndReti>

0000028e <handleIn>:
 28e:	00 91 99 00 	lds	r16, 0x0099
 292:	01 30       	cpi	r16, 0x01	; 1
 294:	8c f4       	brge	.+34     	; 0x2b8 <sendNakAndReti>
 296:	0a e5       	ldi	r16, 0x5A	; 90
 298:	30 91 60 00 	lds	r19, 0x0060
 29c:	34 fd       	sbrc	r19, 4
 29e:	10 c0       	rjmp	.+32     	; 0x2c0 <sendCntAndReti>
 2a0:	00 93 60 00 	sts	0x0060, r16
 2a4:	c9 e8       	ldi	r28, 0x89	; 137
 2a6:	d0 e0       	ldi	r29, 0x00	; 0
 2a8:	0f c0       	rjmp	.+30     	; 0x2c8 <usbSendAndReti>

000002aa <stuffN1Delay>:
 2aa:	27 95       	ror	r18
 2ac:	a8 f4       	brcc	.+42     	; 0x2d8 <doExorN1>
 2ae:	51 50       	subi	r21, 0x01	; 1
 2b0:	a9 f4       	brne	.+42     	; 0x2dc <commonN1>
 2b2:	22 0f       	add	r18, r18
 2b4:	00 00       	nop
 2b6:	f9 cf       	rjmp	.-14     	; 0x2aa <stuffN1Delay>

000002b8 <sendNakAndReti>:
 2b8:	4a e5       	ldi	r20, 0x5A	; 90
 2ba:	03 c0       	rjmp	.+6      	; 0x2c2 <usbSendX3>

000002bc <sendAckAndReti>:
 2bc:	42 ed       	ldi	r20, 0xD2	; 210
 2be:	01 c0       	rjmp	.+2      	; 0x2c2 <usbSendX3>

000002c0 <sendCntAndReti>:
 2c0:	43 2f       	mov	r20, r19

000002c2 <usbSendX3>:
 2c2:	c4 e1       	ldi	r28, 0x14	; 20
 2c4:	d0 e0       	ldi	r29, 0x00	; 0
 2c6:	32 e0       	ldi	r19, 0x02	; 2

000002c8 <usbSendAndReti>:
 2c8:	11 b3       	in	r17, 0x11	; 17
 2ca:	1c 60       	ori	r17, 0x0C	; 12
 2cc:	93 9a       	sbi	0x12, 3	; 18
 2ce:	11 bb       	out	0x11, r17	; 17
 2d0:	02 b3       	in	r16, 0x12	; 18
 2d2:	20 e4       	ldi	r18, 0x40	; 64
 2d4:	1c e0       	ldi	r17, 0x0C	; 12
 2d6:	5f 93       	push	r21

000002d8 <doExorN1>:
 2d8:	01 27       	eor	r16, r17
 2da:	56 e0       	ldi	r21, 0x06	; 6

000002dc <commonN1>:
 2dc:	02 bb       	out	0x12, r16	; 18
 2de:	27 95       	ror	r18
 2e0:	20 f4       	brcc	.+8      	; 0x2ea <doExorN2>
 2e2:	51 50       	subi	r21, 0x01	; 1
 2e4:	21 f4       	brne	.+8      	; 0x2ee <commonN2>
 2e6:	22 0f       	add	r18, r18
 2e8:	f9 cf       	rjmp	.-14     	; 0x2dc <commonN1>

000002ea <doExorN2>:
 2ea:	01 27       	eor	r16, r17
 2ec:	56 e0       	ldi	r21, 0x06	; 6

000002ee <commonN2>:
 2ee:	00 00       	nop
 2f0:	3b 5a       	subi	r19, 0xAB	; 171
 2f2:	02 bb       	out	0x12, r16	; 18
 2f4:	d0 f2       	brcs	.-76     	; 0x2aa <stuffN1Delay>

000002f6 <stuff6Delay>:
 2f6:	27 95       	ror	r18
 2f8:	28 f4       	brcc	.+10     	; 0x304 <doExor6>
 2fa:	51 50       	subi	r21, 0x01	; 1
 2fc:	29 f4       	brne	.+10     	; 0x308 <common6>
 2fe:	22 0f       	add	r18, r18
 300:	00 00       	nop
 302:	f9 cf       	rjmp	.-14     	; 0x2f6 <stuff6Delay>

00000304 <doExor6>:
 304:	01 27       	eor	r16, r17
 306:	56 e0       	ldi	r21, 0x06	; 6

00000308 <common6>:
 308:	27 95       	ror	r18
 30a:	02 bb       	out	0x12, r16	; 18
 30c:	20 f4       	brcc	.+8      	; 0x316 <doExor7>
 30e:	51 50       	subi	r21, 0x01	; 1
 310:	21 f4       	brne	.+8      	; 0x31a <common7>
 312:	22 0f       	add	r18, r18
 314:	f9 cf       	rjmp	.-14     	; 0x308 <common6>

00000316 <doExor7>:
 316:	01 27       	eor	r16, r17
 318:	56 e0       	ldi	r21, 0x06	; 6

0000031a <common7>:
 31a:	29 91       	ld	r18, Y+
 31c:	33 23       	and	r19, r19
 31e:	02 bb       	out	0x12, r16	; 18
 320:	21 f6       	brne	.-120    	; 0x2aa <stuffN1Delay>
 322:	03 7f       	andi	r16, 0xF3	; 243
 324:	10 91 9a 00 	lds	r17, 0x009A
 328:	11 0f       	add	r17, r17
 32a:	c6 51       	subi	r28, 0x16	; 22
 32c:	d0 40       	sbci	r29, 0x00	; 0
 32e:	02 bb       	out	0x12, r16	; 18
 330:	11 f0       	breq	.+4      	; 0x336 <skipAddrAssign>
 332:	10 93 94 00 	sts	0x0094, r17

00000336 <skipAddrAssign>:
 336:	10 e4       	ldi	r17, 0x40	; 64
 338:	1a bf       	out	0x3a, r17	; 58
 33a:	08 60       	ori	r16, 0x08	; 8
 33c:	11 b3       	in	r17, 0x11	; 17
 33e:	13 7f       	andi	r17, 0xF3	; 243
 340:	40 2f       	mov	r20, r16
 342:	43 7f       	andi	r20, 0xF3	; 243
 344:	5f 91       	pop	r21
 346:	00 c0       	rjmp	.+0      	; 0x348 <skipAddrAssign+0x12>
 348:	00 c0       	rjmp	.+0      	; 0x34a <skipAddrAssign+0x14>
 34a:	02 bb       	out	0x12, r16	; 18
 34c:	11 bb       	out	0x11, r17	; 17
 34e:	42 bb       	out	0x12, r20	; 18
 350:	7c cf       	rjmp	.-264    	; 0x24a <doReturn>

00000352 <usbPoll>:
 352:	1f 93       	push	r17
 354:	cf 93       	push	r28
 356:	df 93       	push	r29
 358:	80 91 99 00 	lds	r24, 0x0099
 35c:	83 50       	subi	r24, 0x03	; 3
 35e:	87 fd       	sbrc	r24, 7
 360:	88 c0       	rjmp	.+272    	; 0x472 <usbPoll+0x120>
 362:	90 91 96 00 	lds	r25, 0x0096
 366:	20 91 95 00 	lds	r18, 0x0095
 36a:	2d 32       	cpi	r18, 0x2D	; 45
 36c:	09 f0       	breq	.+2      	; 0x370 <usbPoll+0x1e>
 36e:	7f c0       	rjmp	.+254    	; 0x46e <usbPoll+0x11c>
 370:	88 30       	cpi	r24, 0x08	; 8
 372:	09 f0       	breq	.+2      	; 0x376 <usbPoll+0x24>
 374:	7c c0       	rjmp	.+248    	; 0x46e <usbPoll+0x11c>
 376:	cc e0       	ldi	r28, 0x0C	; 12
 378:	d0 e0       	ldi	r29, 0x00	; 0
 37a:	c9 1b       	sub	r28, r25
 37c:	d1 09       	sbc	r29, r1
 37e:	c3 56       	subi	r28, 0x63	; 99
 380:	df 4f       	sbci	r29, 0xFF	; 255
 382:	83 ec       	ldi	r24, 0xC3	; 195
 384:	80 93 89 00 	sts	0x0089, r24
 388:	8a e5       	ldi	r24, 0x5A	; 90
 38a:	80 93 60 00 	sts	0x0060, r24
 38e:	10 92 84 00 	sts	0x0084, r1
 392:	88 81       	ld	r24, Y
 394:	80 76       	andi	r24, 0x60	; 96
 396:	19 f0       	breq	.+6      	; 0x39e <usbPoll+0x4c>
 398:	ce 01       	movw	r24, r28
 39a:	b7 d1       	rcall	.+878    	; 0x70a <usbFunctionSetup>
 39c:	5f c0       	rjmp	.+190    	; 0x45c <usbPoll+0x10a>
 39e:	9a 81       	ldd	r25, Y+2	; 0x02
 3a0:	10 92 92 00 	sts	0x0092, r1
 3a4:	89 81       	ldd	r24, Y+1	; 0x01
 3a6:	88 23       	and	r24, r24
 3a8:	31 f4       	brne	.+12     	; 0x3b6 <usbPoll+0x64>
 3aa:	10 92 93 00 	sts	0x0093, r1
 3ae:	22 e9       	ldi	r18, 0x92	; 146
 3b0:	30 e0       	ldi	r19, 0x00	; 0
 3b2:	82 e0       	ldi	r24, 0x02	; 2
 3b4:	4f c0       	rjmp	.+158    	; 0x454 <usbPoll+0x102>
 3b6:	85 30       	cpi	r24, 0x05	; 5
 3b8:	19 f4       	brne	.+6      	; 0x3c0 <usbPoll+0x6e>
 3ba:	90 93 9a 00 	sts	0x009A, r25
 3be:	40 c0       	rjmp	.+128    	; 0x440 <usbPoll+0xee>
 3c0:	86 30       	cpi	r24, 0x06	; 6
 3c2:	a9 f5       	brne	.+106    	; 0x42e <usbPoll+0xdc>
 3c4:	8b 81       	ldd	r24, Y+3	; 0x03
 3c6:	81 30       	cpi	r24, 0x01	; 1
 3c8:	19 f4       	brne	.+6      	; 0x3d0 <usbPoll+0x7e>
 3ca:	8e e6       	ldi	r24, 0x6E	; 110
 3cc:	90 e0       	ldi	r25, 0x00	; 0
 3ce:	04 c0       	rjmp	.+8      	; 0x3d8 <usbPoll+0x86>
 3d0:	82 30       	cpi	r24, 0x02	; 2
 3d2:	41 f4       	brne	.+16     	; 0x3e4 <usbPoll+0x92>
 3d4:	80 e8       	ldi	r24, 0x80	; 128
 3d6:	90 e0       	ldi	r25, 0x00	; 0
 3d8:	90 93 98 00 	sts	0x0098, r25
 3dc:	80 93 97 00 	sts	0x0097, r24
 3e0:	82 e1       	ldi	r24, 0x12	; 18
 3e2:	21 c0       	rjmp	.+66     	; 0x426 <usbPoll+0xd4>
 3e4:	83 30       	cpi	r24, 0x03	; 3
 3e6:	f1 f4       	brne	.+60     	; 0x424 <usbPoll+0xd2>
 3e8:	99 23       	and	r25, r25
 3ea:	41 f4       	brne	.+16     	; 0x3fc <usbPoll+0xaa>
 3ec:	80 e4       	ldi	r24, 0x40	; 64
 3ee:	90 e0       	ldi	r25, 0x00	; 0
 3f0:	90 93 98 00 	sts	0x0098, r25
 3f4:	80 93 97 00 	sts	0x0097, r24
 3f8:	84 e0       	ldi	r24, 0x04	; 4
 3fa:	15 c0       	rjmp	.+42     	; 0x426 <usbPoll+0xd4>
 3fc:	91 30       	cpi	r25, 0x01	; 1
 3fe:	41 f4       	brne	.+16     	; 0x410 <usbPoll+0xbe>
 400:	84 e4       	ldi	r24, 0x44	; 68
 402:	90 e0       	ldi	r25, 0x00	; 0
 404:	90 93 98 00 	sts	0x0098, r25
 408:	80 93 97 00 	sts	0x0097, r24
 40c:	80 e2       	ldi	r24, 0x20	; 32
 40e:	0b c0       	rjmp	.+22     	; 0x426 <usbPoll+0xd4>
 410:	92 30       	cpi	r25, 0x02	; 2
 412:	41 f4       	brne	.+16     	; 0x424 <usbPoll+0xd2>
 414:	84 e6       	ldi	r24, 0x64	; 100
 416:	90 e0       	ldi	r25, 0x00	; 0
 418:	90 93 98 00 	sts	0x0098, r25
 41c:	80 93 97 00 	sts	0x0097, r24
 420:	8a e0       	ldi	r24, 0x0A	; 10
 422:	01 c0       	rjmp	.+2      	; 0x426 <usbPoll+0xd4>
 424:	80 e0       	ldi	r24, 0x00	; 0
 426:	90 e4       	ldi	r25, 0x40	; 64
 428:	90 93 84 00 	sts	0x0084, r25
 42c:	17 c0       	rjmp	.+46     	; 0x45c <usbPoll+0x10a>
 42e:	88 30       	cpi	r24, 0x08	; 8
 430:	59 f0       	breq	.+22     	; 0x448 <usbPoll+0xf6>
 432:	89 30       	cpi	r24, 0x09	; 9
 434:	19 f4       	brne	.+6      	; 0x43c <usbPoll+0xea>
 436:	90 93 9c 00 	sts	0x009C, r25
 43a:	02 c0       	rjmp	.+4      	; 0x440 <usbPoll+0xee>
 43c:	8a 30       	cpi	r24, 0x0A	; 10
 43e:	39 f0       	breq	.+14     	; 0x44e <usbPoll+0xfc>
 440:	22 e9       	ldi	r18, 0x92	; 146
 442:	30 e0       	ldi	r19, 0x00	; 0
 444:	80 e0       	ldi	r24, 0x00	; 0
 446:	06 c0       	rjmp	.+12     	; 0x454 <usbPoll+0x102>
 448:	2c e9       	ldi	r18, 0x9C	; 156
 44a:	30 e0       	ldi	r19, 0x00	; 0
 44c:	02 c0       	rjmp	.+4      	; 0x452 <usbPoll+0x100>
 44e:	22 e9       	ldi	r18, 0x92	; 146
 450:	30 e0       	ldi	r19, 0x00	; 0
 452:	81 e0       	ldi	r24, 0x01	; 1
 454:	30 93 98 00 	sts	0x0098, r19
 458:	20 93 97 00 	sts	0x0097, r18
 45c:	9f 81       	ldd	r25, Y+7	; 0x07
 45e:	99 23       	and	r25, r25
 460:	21 f4       	brne	.+8      	; 0x46a <usbPoll+0x118>
 462:	9e 81       	ldd	r25, Y+6	; 0x06
 464:	98 17       	cp	r25, r24
 466:	08 f4       	brcc	.+2      	; 0x46a <usbPoll+0x118>
 468:	89 2f       	mov	r24, r25
 46a:	80 93 61 00 	sts	0x0061, r24
 46e:	10 92 99 00 	sts	0x0099, r1
 472:	80 91 60 00 	lds	r24, 0x0060
 476:	84 ff       	sbrs	r24, 4
 478:	43 c0       	rjmp	.+134    	; 0x500 <usbPoll+0x1ae>
 47a:	80 91 61 00 	lds	r24, 0x0061
 47e:	8f 3f       	cpi	r24, 0xFF	; 255
 480:	09 f4       	brne	.+2      	; 0x484 <usbPoll+0x132>
 482:	3e c0       	rjmp	.+124    	; 0x500 <usbPoll+0x1ae>
 484:	18 2f       	mov	r17, r24
 486:	89 30       	cpi	r24, 0x09	; 9
 488:	08 f0       	brcs	.+2      	; 0x48c <usbPoll+0x13a>
 48a:	18 e0       	ldi	r17, 0x08	; 8
 48c:	81 1b       	sub	r24, r17
 48e:	80 93 61 00 	sts	0x0061, r24
 492:	80 91 89 00 	lds	r24, 0x0089
 496:	98 e8       	ldi	r25, 0x88	; 136
 498:	89 27       	eor	r24, r25
 49a:	80 93 89 00 	sts	0x0089, r24
 49e:	11 23       	and	r17, r17
 4a0:	19 f1       	breq	.+70     	; 0x4e8 <usbPoll+0x196>
 4a2:	80 91 97 00 	lds	r24, 0x0097
 4a6:	90 91 98 00 	lds	r25, 0x0098
 4aa:	20 91 84 00 	lds	r18, 0x0084
 4ae:	26 ff       	sbrs	r18, 6
 4b0:	0a c0       	rjmp	.+20     	; 0x4c6 <usbPoll+0x174>
 4b2:	fc 01       	movw	r30, r24
 4b4:	21 2f       	mov	r18, r17
 4b6:	aa e8       	ldi	r26, 0x8A	; 138
 4b8:	b0 e0       	ldi	r27, 0x00	; 0
 4ba:	34 91       	lpm	r19, Z+
 4bc:	3d 93       	st	X+, r19
 4be:	31 96       	adiw	r30, 0x01	; 1
 4c0:	21 50       	subi	r18, 0x01	; 1
 4c2:	d9 f7       	brne	.-10     	; 0x4ba <usbPoll+0x168>
 4c4:	08 c0       	rjmp	.+16     	; 0x4d6 <usbPoll+0x184>
 4c6:	dc 01       	movw	r26, r24
 4c8:	21 2f       	mov	r18, r17
 4ca:	ea e8       	ldi	r30, 0x8A	; 138
 4cc:	f0 e0       	ldi	r31, 0x00	; 0
 4ce:	3d 91       	ld	r19, X+
 4d0:	31 93       	st	Z+, r19
 4d2:	21 50       	subi	r18, 0x01	; 1
 4d4:	e1 f7       	brne	.-8      	; 0x4ce <usbPoll+0x17c>
 4d6:	01 96       	adiw	r24, 0x01	; 1
 4d8:	21 2f       	mov	r18, r17
 4da:	21 50       	subi	r18, 0x01	; 1
 4dc:	82 0f       	add	r24, r18
 4de:	91 1d       	adc	r25, r1
 4e0:	90 93 98 00 	sts	0x0098, r25
 4e4:	80 93 97 00 	sts	0x0097, r24
 4e8:	8a e8       	ldi	r24, 0x8A	; 138
 4ea:	90 e0       	ldi	r25, 0x00	; 0
 4ec:	61 2f       	mov	r22, r17
 4ee:	00 de       	rcall	.-1024   	; 0xf0 <usbCrc16Append>
 4f0:	1c 5f       	subi	r17, 0xFC	; 252
 4f2:	1c 30       	cpi	r17, 0x0C	; 12
 4f4:	19 f0       	breq	.+6      	; 0x4fc <usbPoll+0x1aa>
 4f6:	8f ef       	ldi	r24, 0xFF	; 255
 4f8:	80 93 61 00 	sts	0x0061, r24
 4fc:	10 93 60 00 	sts	0x0060, r17
 500:	84 e1       	ldi	r24, 0x14	; 20
 502:	90 b3       	in	r25, 0x10	; 16
 504:	9c 70       	andi	r25, 0x0C	; 12
 506:	31 f4       	brne	.+12     	; 0x514 <usbPoll+0x1c2>
 508:	81 50       	subi	r24, 0x01	; 1
 50a:	d9 f7       	brne	.-10     	; 0x502 <usbPoll+0x1b0>
 50c:	10 92 9a 00 	sts	0x009A, r1
 510:	10 92 94 00 	sts	0x0094, r1
 514:	df 91       	pop	r29
 516:	cf 91       	pop	r28
 518:	1f 91       	pop	r17
 51a:	08 95       	ret

0000051c <usbInit>:
 51c:	85 b7       	in	r24, 0x35	; 53
 51e:	82 60       	ori	r24, 0x02	; 2
 520:	85 bf       	out	0x35, r24	; 53
 522:	8b b7       	in	r24, 0x3b	; 59
 524:	80 64       	ori	r24, 0x40	; 64
 526:	8b bf       	out	0x3b, r24	; 59
 528:	08 95       	ret

0000052a <direction_cw>:
 52a:	80 91 b4 00 	lds	r24, 0x00B4
 52e:	90 91 b5 00 	lds	r25, 0x00B5
 532:	8a 30       	cpi	r24, 0x0A	; 10
 534:	91 05       	cpc	r25, r1
 536:	11 f4       	brne	.+4      	; 0x53c <direction_cw+0x12>
 538:	c0 9a       	sbi	0x18, 0	; 24
 53a:	08 95       	ret
 53c:	8b 30       	cpi	r24, 0x0B	; 11
 53e:	91 05       	cpc	r25, r1
 540:	09 f4       	brne	.+2      	; 0x544 <direction_cw+0x1a>
 542:	c0 9a       	sbi	0x18, 0	; 24
 544:	08 95       	ret

00000546 <direction_ccw>:
 546:	80 91 b4 00 	lds	r24, 0x00B4
 54a:	90 91 b5 00 	lds	r25, 0x00B5
 54e:	8a 30       	cpi	r24, 0x0A	; 10
 550:	91 05       	cpc	r25, r1
 552:	11 f4       	brne	.+4      	; 0x558 <direction_ccw+0x12>
 554:	c0 98       	cbi	0x18, 0	; 24
 556:	08 95       	ret
 558:	8b 30       	cpi	r24, 0x0B	; 11
 55a:	91 05       	cpc	r25, r1
 55c:	09 f4       	brne	.+2      	; 0x560 <direction_ccw+0x1a>
 55e:	c0 98       	cbi	0x18, 0	; 24
 560:	08 95       	ret

00000562 <stepper_on>:
 562:	80 91 b4 00 	lds	r24, 0x00B4
 566:	90 91 b5 00 	lds	r25, 0x00B5
 56a:	8a 30       	cpi	r24, 0x0A	; 10
 56c:	91 05       	cpc	r25, r1
 56e:	11 f4       	brne	.+4      	; 0x574 <stepper_on+0x12>
 570:	c2 98       	cbi	0x18, 2	; 24
 572:	08 95       	ret
 574:	8b 30       	cpi	r24, 0x0B	; 11
 576:	91 05       	cpc	r25, r1
 578:	09 f4       	brne	.+2      	; 0x57c <stepper_on+0x1a>
 57a:	c3 98       	cbi	0x18, 3	; 24
 57c:	08 95       	ret

0000057e <stepper_off>:
 57e:	80 91 b4 00 	lds	r24, 0x00B4
 582:	90 91 b5 00 	lds	r25, 0x00B5
 586:	8a 30       	cpi	r24, 0x0A	; 10
 588:	91 05       	cpc	r25, r1
 58a:	11 f4       	brne	.+4      	; 0x590 <stepper_off+0x12>
 58c:	c2 9a       	sbi	0x18, 2	; 24
 58e:	08 95       	ret
 590:	8b 30       	cpi	r24, 0x0B	; 11
 592:	91 05       	cpc	r25, r1
 594:	09 f4       	brne	.+2      	; 0x598 <stepper_off+0x1a>
 596:	c3 9a       	sbi	0x18, 3	; 24
 598:	08 95       	ret

0000059a <single_step>:
 59a:	80 91 b4 00 	lds	r24, 0x00B4
 59e:	90 91 b5 00 	lds	r25, 0x00B5
 5a2:	8a 30       	cpi	r24, 0x0A	; 10
 5a4:	91 05       	cpc	r25, r1
 5a6:	19 f0       	breq	.+6      	; 0x5ae <single_step+0x14>
 5a8:	8b 30       	cpi	r24, 0x0B	; 11
 5aa:	91 05       	cpc	r25, r1
 5ac:	09 f4       	brne	.+2      	; 0x5b0 <single_step+0x16>
 5ae:	c1 98       	cbi	0x18, 1	; 24
 5b0:	87 e9       	ldi	r24, 0x97	; 151
 5b2:	9a e3       	ldi	r25, 0x3A	; 58
 5b4:	01 97       	sbiw	r24, 0x01	; 1
 5b6:	f1 f7       	brne	.-4      	; 0x5b4 <single_step+0x1a>
 5b8:	00 c0       	rjmp	.+0      	; 0x5ba <single_step+0x20>
 5ba:	00 00       	nop
 5bc:	80 91 b4 00 	lds	r24, 0x00B4
 5c0:	90 91 b5 00 	lds	r25, 0x00B5
 5c4:	8a 30       	cpi	r24, 0x0A	; 10
 5c6:	91 05       	cpc	r25, r1
 5c8:	19 f0       	breq	.+6      	; 0x5d0 <single_step+0x36>
 5ca:	8b 30       	cpi	r24, 0x0B	; 11
 5cc:	91 05       	cpc	r25, r1
 5ce:	09 f4       	brne	.+2      	; 0x5d2 <single_step+0x38>
 5d0:	c1 9a       	sbi	0x18, 1	; 24
 5d2:	87 e9       	ldi	r24, 0x97	; 151
 5d4:	9a e3       	ldi	r25, 0x3A	; 58
 5d6:	01 97       	sbiw	r24, 0x01	; 1
 5d8:	f1 f7       	brne	.-4      	; 0x5d6 <single_step+0x3c>
 5da:	00 c0       	rjmp	.+0      	; 0x5dc <single_step+0x42>
 5dc:	00 00       	nop
 5de:	08 95       	ret

000005e0 <step>:
 5e0:	0f 93       	push	r16
 5e2:	1f 93       	push	r17
 5e4:	cf 93       	push	r28
 5e6:	df 93       	push	r29
 5e8:	8c 01       	movw	r16, r24
 5ea:	c0 e0       	ldi	r28, 0x00	; 0
 5ec:	d0 e0       	ldi	r29, 0x00	; 0
 5ee:	02 c0       	rjmp	.+4      	; 0x5f4 <step+0x14>
 5f0:	d4 df       	rcall	.-88     	; 0x59a <single_step>
 5f2:	21 96       	adiw	r28, 0x01	; 1
 5f4:	c0 17       	cp	r28, r16
 5f6:	d1 07       	cpc	r29, r17
 5f8:	dc f3       	brlt	.-10     	; 0x5f0 <step+0x10>
 5fa:	df 91       	pop	r29
 5fc:	cf 91       	pop	r28
 5fe:	1f 91       	pop	r17
 600:	0f 91       	pop	r16
 602:	08 95       	ret

00000604 <fabscan_setup>:
 604:	89 9a       	sbi	0x11, 1	; 17
 606:	bd 9a       	sbi	0x17, 5	; 23
 608:	ba 9a       	sbi	0x17, 2	; 23
 60a:	b8 9a       	sbi	0x17, 0	; 23
 60c:	b9 9a       	sbi	0x17, 1	; 23
 60e:	bb 9a       	sbi	0x17, 3	; 23
 610:	b8 9a       	sbi	0x17, 0	; 23
 612:	b9 9a       	sbi	0x17, 1	; 23
 614:	c1 9a       	sbi	0x18, 1	; 24
 616:	88 b3       	in	r24, 0x18	; 24
 618:	83 60       	ori	r24, 0x03	; 3
 61a:	88 bb       	out	0x18, r24	; 24
 61c:	88 b3       	in	r24, 0x18	; 24
 61e:	85 60       	ori	r24, 0x05	; 5
 620:	88 bb       	out	0x18, r24	; 24
 622:	90 9a       	sbi	0x12, 0	; 18
 624:	8a e0       	ldi	r24, 0x0A	; 10
 626:	90 e0       	ldi	r25, 0x00	; 0
 628:	90 93 b5 00 	sts	0x00B5, r25
 62c:	80 93 b4 00 	sts	0x00B4, r24
 630:	08 95       	ret

00000632 <fabscan_typAction>:
 632:	fc 01       	movw	r30, r24
 634:	e8 5c       	subi	r30, 0xC8	; 200
 636:	f0 40       	sbci	r31, 0x00	; 0
 638:	ed 30       	cpi	r30, 0x0D	; 13
 63a:	f1 05       	cpc	r31, r1
 63c:	50 f5       	brcc	.+84     	; 0x692 <fabscan_typAction+0x60>
 63e:	ed 5e       	subi	r30, 0xED	; 237
 640:	ff 4f       	sbci	r31, 0xFF	; 255
 642:	09 94       	ijmp
 644:	91 98       	cbi	0x12, 1	; 18
 646:	23 c0       	rjmp	.+70     	; 0x68e <fabscan_typAction+0x5c>
 648:	91 9a       	sbi	0x12, 1	; 18
 64a:	21 c0       	rjmp	.+66     	; 0x68e <fabscan_typAction+0x5c>
 64c:	86 e0       	ldi	r24, 0x06	; 6
 64e:	90 e0       	ldi	r25, 0x00	; 0
 650:	1a c0       	rjmp	.+52     	; 0x686 <fabscan_typAction+0x54>
 652:	83 e0       	ldi	r24, 0x03	; 3
 654:	90 e0       	ldi	r25, 0x00	; 0
 656:	17 c0       	rjmp	.+46     	; 0x686 <fabscan_typAction+0x54>
 658:	68 df       	rcall	.-304    	; 0x52a <direction_cw>
 65a:	19 c0       	rjmp	.+50     	; 0x68e <fabscan_typAction+0x5c>
 65c:	74 df       	rcall	.-280    	; 0x546 <direction_ccw>
 65e:	17 c0       	rjmp	.+46     	; 0x68e <fabscan_typAction+0x5c>
 660:	80 df       	rcall	.-256    	; 0x562 <stepper_on>
 662:	15 c0       	rjmp	.+42     	; 0x68e <fabscan_typAction+0x5c>
 664:	8c df       	rcall	.-232    	; 0x57e <stepper_off>
 666:	13 c0       	rjmp	.+38     	; 0x68e <fabscan_typAction+0x5c>
 668:	82 e0       	ldi	r24, 0x02	; 2
 66a:	90 e0       	ldi	r25, 0x00	; 0
 66c:	0c c0       	rjmp	.+24     	; 0x686 <fabscan_typAction+0x54>
 66e:	c5 98       	cbi	0x18, 5	; 24
 670:	0e c0       	rjmp	.+28     	; 0x68e <fabscan_typAction+0x5c>
 672:	87 eb       	ldi	r24, 0xB7	; 183
 674:	9b e0       	ldi	r25, 0x0B	; 11
 676:	01 97       	sbiw	r24, 0x01	; 1
 678:	f1 f7       	brne	.-4      	; 0x676 <fabscan_typAction+0x44>
 67a:	00 c0       	rjmp	.+0      	; 0x67c <fabscan_typAction+0x4a>
 67c:	00 00       	nop
 67e:	83 ed       	ldi	r24, 0xD3	; 211
 680:	08 95       	ret
 682:	87 e0       	ldi	r24, 0x07	; 7
 684:	90 e0       	ldi	r25, 0x00	; 0
 686:	90 93 63 00 	sts	0x0063, r25
 68a:	80 93 62 00 	sts	0x0062, r24
 68e:	80 e0       	ldi	r24, 0x00	; 0
 690:	08 95       	ret
 692:	80 e0       	ldi	r24, 0x00	; 0
 694:	08 95       	ret

00000696 <fabscan_work>:
 696:	18 16       	cp	r1, r24
 698:	19 06       	cpc	r1, r25
 69a:	9c f5       	brge	.+102    	; 0x702 <fabscan_work+0x6c>
 69c:	80 91 62 00 	lds	r24, 0x0062
 6a0:	90 91 63 00 	lds	r25, 0x0063
 6a4:	82 30       	cpi	r24, 0x02	; 2
 6a6:	91 05       	cpc	r25, r1
 6a8:	b1 f0       	breq	.+44     	; 0x6d6 <fabscan_work+0x40>
 6aa:	83 30       	cpi	r24, 0x03	; 3
 6ac:	91 05       	cpc	r25, r1
 6ae:	24 f4       	brge	.+8      	; 0x6b8 <fabscan_work+0x22>
 6b0:	81 30       	cpi	r24, 0x01	; 1
 6b2:	91 05       	cpc	r25, r1
 6b4:	41 f5       	brne	.+80     	; 0x706 <fabscan_work+0x70>
 6b6:	07 c0       	rjmp	.+14     	; 0x6c6 <fabscan_work+0x30>
 6b8:	83 30       	cpi	r24, 0x03	; 3
 6ba:	91 05       	cpc	r25, r1
 6bc:	39 f0       	breq	.+14     	; 0x6cc <fabscan_work+0x36>
 6be:	87 30       	cpi	r24, 0x07	; 7
 6c0:	91 05       	cpc	r25, r1
 6c2:	09 f5       	brne	.+66     	; 0x706 <fabscan_work+0x70>
 6c4:	0f c0       	rjmp	.+30     	; 0x6e4 <fabscan_work+0x4e>
 6c6:	cb 01       	movw	r24, r22
 6c8:	b4 df       	rcall	.-152    	; 0x632 <fabscan_typAction>
 6ca:	08 95       	ret
 6cc:	80 91 86 00 	lds	r24, 0x0086
 6d0:	90 91 87 00 	lds	r25, 0x0087
 6d4:	85 df       	rcall	.-246    	; 0x5e0 <step>
 6d6:	81 e0       	ldi	r24, 0x01	; 1
 6d8:	90 e0       	ldi	r25, 0x00	; 0
 6da:	90 93 63 00 	sts	0x0063, r25
 6de:	80 93 62 00 	sts	0x0062, r24
 6e2:	0f c0       	rjmp	.+30     	; 0x702 <fabscan_work+0x6c>
 6e4:	90 91 87 00 	lds	r25, 0x0087
 6e8:	80 91 86 00 	lds	r24, 0x0086
 6ec:	80 93 b4 00 	sts	0x00B4, r24
 6f0:	90 93 b5 00 	sts	0x00B5, r25
 6f4:	21 e0       	ldi	r18, 0x01	; 1
 6f6:	30 e0       	ldi	r19, 0x00	; 0
 6f8:	30 93 63 00 	sts	0x0063, r19
 6fc:	20 93 62 00 	sts	0x0062, r18
 700:	08 95       	ret
 702:	80 e0       	ldi	r24, 0x00	; 0
 704:	08 95       	ret
 706:	80 e0       	ldi	r24, 0x00	; 0
 708:	08 95       	ret

0000070a <usbFunctionSetup>:
 70a:	fc 01       	movw	r30, r24
 70c:	81 81       	ldd	r24, Z+1	; 0x01
 70e:	80 93 86 00 	sts	0x0086, r24
 712:	10 92 87 00 	sts	0x0087, r1
 716:	81 e0       	ldi	r24, 0x01	; 1
 718:	80 93 85 00 	sts	0x0085, r24
 71c:	08 95       	ret

0000071e <usbFunctionWrite>:
 71e:	81 e0       	ldi	r24, 0x01	; 1
 720:	90 91 88 00 	lds	r25, 0x0088
 724:	91 11       	cpse	r25, r1
 726:	80 e0       	ldi	r24, 0x00	; 0
 728:	08 95       	ret

0000072a <main>:
 72a:	6c df       	rcall	.-296    	; 0x604 <fabscan_setup>
 72c:	f7 de       	rcall	.-530    	; 0x51c <usbInit>
 72e:	8b 9a       	sbi	0x11, 3	; 17
 730:	8a ef       	ldi	r24, 0xFA	; 250
 732:	ef e6       	ldi	r30, 0x6F	; 111
 734:	f7 e1       	ldi	r31, 0x17	; 23
 736:	31 97       	sbiw	r30, 0x01	; 1
 738:	f1 f7       	brne	.-4      	; 0x736 <main+0xc>
 73a:	00 c0       	rjmp	.+0      	; 0x73c <main+0x12>
 73c:	00 00       	nop
 73e:	81 50       	subi	r24, 0x01	; 1
 740:	c1 f7       	brne	.-16     	; 0x732 <main+0x8>
 742:	8b 98       	cbi	0x11, 3	; 17
 744:	78 94       	sei
 746:	05 de       	rcall	.-1014   	; 0x352 <usbPoll>
 748:	80 91 85 00 	lds	r24, 0x0085
 74c:	88 23       	and	r24, r24
 74e:	d9 f3       	breq	.-10     	; 0x746 <main+0x1c>
 750:	10 92 85 00 	sts	0x0085, r1
 754:	60 91 86 00 	lds	r22, 0x0086
 758:	70 91 87 00 	lds	r23, 0x0087
 75c:	81 e0       	ldi	r24, 0x01	; 1
 75e:	90 e0       	ldi	r25, 0x00	; 0
 760:	9a df       	rcall	.-204    	; 0x696 <fabscan_work>
 762:	f1 cf       	rjmp	.-30     	; 0x746 <main+0x1c>

00000764 <_exit>:
 764:	f8 94       	cli

00000766 <__stop_program>:
 766:	ff cf       	rjmp	.-2      	; 0x766 <__stop_program>
